target datalayout = "e-m:e-p270:32:32-p271:32:32-p272:64:64-i64:64-i128:128-f80:128-n8:16:32:64-S128"
target triple = "x86_64-pc-linux-gnu"

%struct.fmt_map = type { i32, i32, i32 }
%struct.AVFormatContext = type { ptr, ptr, ptr, ptr, ptr, i32, i32, ptr, i32, ptr, i32, ptr, ptr, i64, i64, i64, i32, i32, i32, i64, i64, ptr, i32, i32, ptr, i32, i32, i32, i32, ptr, i64, i32, i32, %struct.AVIOInterruptCB, i32, i32, i32, i32, i64, i32, i32, i32, i32, i32, i32, i32, i32, i32, i32, i32, i32, i64, i32, i32, i32, i32, i32, ptr, ptr, ptr, ptr, i32, ptr, ptr, ptr, ptr, i32, ptr, ptr, i64, ptr, ptr, ptr, i64 }
%struct.AVIOInterruptCB = type { ptr, ptr }

@ff_fmt_conversion_table = external constant [0 x %struct.fmt_map], align 4
@.str.64 = private unnamed_addr constant [35 x i8] c"Trying to set codec:%s pix_fmt:%s\0A\00", align 1
@.str.65 = private unnamed_addr constant [5 x i8] c"none\00", align 1
@.str.66 = private unnamed_addr constant [79 x i8] c"Cannot find a proper format for codec '%s' (id %d), pixel format '%s' (id %d)\0A\00", align 1
@.str.67 = private unnamed_addr constant [30 x i8] c"Assertion %s failed at %s:%d\0A\00", align 1
@.str.68 = private unnamed_addr constant [15 x i8] c"ret == (-(22))\00", align 1
@.str.69 = private unnamed_addr constant [19 x i8] c"libavdevice/v4l2.c\00", align 1

; Function Attrs: inlinehint nounwind uwtable
define internal ptr @av_x_if_null(ptr noundef %0, ptr noundef %1) #5 {
  %3 = alloca ptr, align 8
  %4 = alloca ptr, align 8
  store ptr %0, ptr %3, align 8, !tbaa !126
  store ptr %1, ptr %4, align 8, !tbaa !126
  %5 = load ptr, ptr %3, align 8, !tbaa !126
  %6 = icmp ne ptr %5, null
  br i1 %6, label %7, label %9

7:                                                ; preds = %2
  %8 = load ptr, ptr %3, align 8, !tbaa !126
  br label %11

9:                                                ; preds = %2
  %10 = load ptr, ptr %4, align 8, !tbaa !126
  br label %11

11:                                               ; preds = %9, %7
  %12 = phi ptr [ %8, %7 ], [ %10, %9 ]
  %13 = ptrtoint ptr %12 to i64
  %14 = inttoptr i64 %13 to ptr
  ret ptr %14
}

; Function Attrs: nounwind uwtable
define internal i32 @device_try_init(ptr noundef %0, i32 noundef %1, ptr noundef %2, ptr noundef %3, ptr noundef %4, ptr noundef %5) #0 {
  %7 = alloca i32, align 4
  %8 = alloca ptr, align 8
  %9 = alloca i32, align 4
  %10 = alloca ptr, align 8
  %11 = alloca ptr, align 8
  %12 = alloca ptr, align 8
  %13 = alloca ptr, align 8
  %14 = alloca i32, align 4
  %15 = alloca i32, align 4
  %16 = alloca i32, align 4
  store ptr %0, ptr %8, align 8, !tbaa !13
  store i32 %1, ptr %9, align 4, !tbaa !32
  store ptr %2, ptr %10, align 8, !tbaa !125
  store ptr %3, ptr %11, align 8, !tbaa !125
  store ptr %4, ptr %12, align 8, !tbaa !125
  store ptr %5, ptr %13, align 8, !tbaa !126
  call void @llvm.lifetime.start.p0(i64 4, ptr %14) #10
  call void @llvm.lifetime.start.p0(i64 4, ptr %15) #10
  %17 = load i32, ptr %9, align 4, !tbaa !32
  %18 = load ptr, ptr %8, align 8, !tbaa !13
  %19 = getelementptr inbounds nuw %struct.AVFormatContext, ptr %18, i32 0, i32 25
  %20 = load i32, ptr %19, align 8, !tbaa !56
  %21 = call i32 @ff_fmt_ff2v4l(i32 noundef %17, i32 noundef %20)
  %22 = load ptr, ptr %12, align 8, !tbaa !125
  store i32 %21, ptr %22, align 4, !tbaa !32
  %23 = load ptr, ptr %12, align 8, !tbaa !125
  %24 = load i32, ptr %23, align 4, !tbaa !32
  %25 = icmp ne i32 %24, 0
  br i1 %25, label %26, label %43

26:                                               ; preds = %6
  %27 = load ptr, ptr %8, align 8, !tbaa !13
  %28 = load ptr, ptr %10, align 8, !tbaa !125
  %29 = load ptr, ptr %11, align 8, !tbaa !125
  %30 = load ptr, ptr %12, align 8, !tbaa !125
  %31 = load i32, ptr %30, align 4, !tbaa !32
  %32 = call i32 @device_init(ptr noundef %27, ptr noundef %28, ptr noundef %29, i32 noundef %31)
  store i32 %32, ptr %14, align 4, !tbaa !32
  %33 = load i32, ptr %14, align 4, !tbaa !32
  %34 = icmp slt i32 %33, 0
  br i1 %34, label %35, label %42

35:                                               ; preds = %26
  %36 = load ptr, ptr %12, align 8, !tbaa !125
  store i32 0, ptr %36, align 4, !tbaa !32
  %37 = load i32, ptr %14, align 4, !tbaa !32
  %38 = icmp ne i32 %37, -22
  br i1 %38, label %39, label %41

39:                                               ; preds = %35
  %40 = load i32, ptr %14, align 4, !tbaa !32
  store i32 %40, ptr %7, align 4
  store i32 1, ptr %16, align 4
  br label %148

41:                                               ; preds = %35
  br label %42

42:                                               ; preds = %41, %26
  br label %43

43:                                               ; preds = %42, %6
  %44 = load ptr, ptr %12, align 8, !tbaa !125
  %45 = load i32, ptr %44, align 4, !tbaa !32
  %46 = icmp ne i32 %45, 0
  br i1 %46, label %130, label %47

47:                                               ; preds = %43
  store i32 0, ptr %15, align 4, !tbaa !32
  br label %48

48:                                               ; preds = %109, %47
  %49 = load i32, ptr %15, align 4, !tbaa !32
  %50 = sext i32 %49 to i64
  %51 = getelementptr inbounds [0 x %struct.fmt_map], ptr @ff_fmt_conversion_table, i64 0, i64 %50
  %52 = getelementptr inbounds nuw %struct.fmt_map, ptr %51, i32 0, i32 1
  %53 = load i32, ptr %52, align 4, !tbaa !127
  %54 = icmp ne i32 %53, 0
  br i1 %54, label %55, label %112

55:                                               ; preds = %48
  %56 = load ptr, ptr %8, align 8, !tbaa !13
  %57 = getelementptr inbounds nuw %struct.AVFormatContext, ptr %56, i32 0, i32 25
  %58 = load i32, ptr %57, align 8, !tbaa !56
  %59 = icmp eq i32 %58, 0
  br i1 %59, label %70, label %60

60:                                               ; preds = %55
  %61 = load i32, ptr %15, align 4, !tbaa !32
  %62 = sext i32 %61 to i64
  %63 = getelementptr inbounds [0 x %struct.fmt_map], ptr @ff_fmt_conversion_table, i64 0, i64 %62
  %64 = getelementptr inbounds nuw %struct.fmt_map, ptr %63, i32 0, i32 1
  %65 = load i32, ptr %64, align 4, !tbaa !127
  %66 = load ptr, ptr %8, align 8, !tbaa !13
  %67 = getelementptr inbounds nuw %struct.AVFormatContext, ptr %66, i32 0, i32 25
  %68 = load i32, ptr %67, align 8, !tbaa !56
  %69 = icmp eq i32 %65, %68
  br i1 %69, label %70, label %108

70:                                               ; preds = %60, %55
  %71 = load ptr, ptr %8, align 8, !tbaa !13
  %72 = load i32, ptr %15, align 4, !tbaa !32
  %73 = sext i32 %72 to i64
  %74 = getelementptr inbounds [0 x %struct.fmt_map], ptr @ff_fmt_conversion_table, i64 0, i64 %73
  %75 = getelementptr inbounds nuw %struct.fmt_map, ptr %74, i32 0, i32 1
  %76 = load i32, ptr %75, align 4, !tbaa !127
  %77 = call ptr @avcodec_get_name(i32 noundef %76)
  %78 = load i32, ptr %15, align 4, !tbaa !32
  %79 = sext i32 %78 to i64
  %80 = getelementptr inbounds [0 x %struct.fmt_map], ptr @ff_fmt_conversion_table, i64 0, i64 %79
  %81 = getelementptr inbounds nuw %struct.fmt_map, ptr %80, i32 0, i32 0
  %82 = load i32, ptr %81, align 4, !tbaa !129
  %83 = call ptr @av_get_pix_fmt_name(i32 noundef %82)
  %84 = call ptr @av_x_if_null(ptr noundef %83, ptr noundef @.str.65)
  call void (ptr, i32, ptr, ...) @av_log(ptr noundef %71, i32 noundef 48, ptr noundef @.str.64, ptr noundef %77, ptr noundef %84)
  %85 = load i32, ptr %15, align 4, !tbaa !32
  %86 = sext i32 %85 to i64
  %87 = getelementptr inbounds [0 x %struct.fmt_map], ptr @ff_fmt_conversion_table, i64 0, i64 %86
  %88 = getelementptr inbounds nuw %struct.fmt_map, ptr %87, i32 0, i32 2
  %89 = load i32, ptr %88, align 4, !tbaa !130
  %90 = load ptr, ptr %12, align 8, !tbaa !125
  store i32 %89, ptr %90, align 4, !tbaa !32
  %91 = load ptr, ptr %8, align 8, !tbaa !13
  %92 = load ptr, ptr %10, align 8, !tbaa !125
  %93 = load ptr, ptr %11, align 8, !tbaa !125
  %94 = load ptr, ptr %12, align 8, !tbaa !125
  %95 = load i32, ptr %94, align 4, !tbaa !32
  %96 = call i32 @device_init(ptr noundef %91, ptr noundef %92, ptr noundef %93, i32 noundef %95)
  store i32 %96, ptr %14, align 4, !tbaa !32
  %97 = load i32, ptr %14, align 4, !tbaa !32
  %98 = icmp sge i32 %97, 0
  br i1 %98, label %99, label %100

99:                                               ; preds = %70
  br label %112

100:                                              ; preds = %70
  %101 = load i32, ptr %14, align 4, !tbaa !32
  %102 = icmp ne i32 %101, -22
  br i1 %102, label %103, label %105

103:                                              ; preds = %100
  %104 = load i32, ptr %14, align 4, !tbaa !32
  store i32 %104, ptr %7, align 4
  store i32 1, ptr %16, align 4
  br label %148

105:                                              ; preds = %100
  br label %106

106:                                              ; preds = %105
  %107 = load ptr, ptr %12, align 8, !tbaa !125
  store i32 0, ptr %107, align 4, !tbaa !32
  br label %108

108:                                              ; preds = %106, %60
  br label %109

109:                                              ; preds = %108
  %110 = load i32, ptr %15, align 4, !tbaa !32
  %111 = add nsw i32 %110, 1
  store i32 %111, ptr %15, align 4, !tbaa !32
  br label %48, !llvm.loop !131

112:                                              ; preds = %99, %48
  %113 = load ptr, ptr %12, align 8, !tbaa !125
  %114 = load i32, ptr %113, align 4, !tbaa !32
  %115 = icmp eq i32 %114, 0
  br i1 %115, label %116, label %129

116:                                              ; preds = %112
  %117 = load ptr, ptr %8, align 8, !tbaa !13
  %118 = load ptr, ptr %8, align 8, !tbaa !13
  %119 = getelementptr inbounds nuw %struct.AVFormatContext, ptr %118, i32 0, i32 25
  %120 = load i32, ptr %119, align 8, !tbaa !56
  %121 = call ptr @avcodec_get_name(i32 noundef %120)
  %122 = load ptr, ptr %8, align 8, !tbaa !13
  %123 = getelementptr inbounds nuw %struct.AVFormatContext, ptr %122, i32 0, i32 25
  %124 = load i32, ptr %123, align 8, !tbaa !56
  %125 = load i32, ptr %9, align 4, !tbaa !32
  %126 = call ptr @av_get_pix_fmt_name(i32 noundef %125)
  %127 = call ptr @av_x_if_null(ptr noundef %126, ptr noundef @.str.65)
  %128 = load i32, ptr %9, align 4, !tbaa !32
  call void (ptr, i32, ptr, ...) @av_log(ptr noundef %117, i32 noundef 16, ptr noundef @.str.66, ptr noundef %121, i32 noundef %124, ptr noundef %127, i32 noundef %128)
  store i32 -22, ptr %14, align 4, !tbaa !32
  br label %129

129:                                              ; preds = %116, %112
  br label %130

130:                                              ; preds = %129, %43
  %131 = load ptr, ptr %12, align 8, !tbaa !125
  %132 = load i32, ptr %131, align 4, !tbaa !32
  %133 = call i32 @ff_fmt_v4l2codec(i32 noundef %132)
  %134 = load ptr, ptr %13, align 8, !tbaa !126
  store i32 %133, ptr %134, align 4, !tbaa !32
  %135 = load ptr, ptr %13, align 8, !tbaa !126
  %136 = load i32, ptr %135, align 4, !tbaa !32
  %137 = icmp eq i32 %136, 0
  br i1 %137, label %138, label %146

138:                                              ; preds = %130
  br label %139

139:                                              ; preds = %138
  %140 = load i32, ptr %14, align 4, !tbaa !32
  %141 = icmp eq i32 %140, -22
  br i1 %141, label %143, label %142

142:                                              ; preds = %139
  call void (ptr, i32, ptr, ...) @av_log(ptr noundef null, i32 noundef 0, ptr noundef @.str.67, ptr noundef @.str.68, ptr noundef @.str.69, i32 noundef 865)
  call void @abort() #12
  unreachable

143:                                              ; preds = %139
  br label %144

144:                                              ; preds = %143
  br label %145

145:                                              ; preds = %144
  br label %146

146:                                              ; preds = %145, %130
  %147 = load i32, ptr %14, align 4, !tbaa !32
  store i32 %147, ptr %7, align 4
  store i32 1, ptr %16, align 4
  br label %148

148:                                              ; preds = %146, %103, %39
  call void @llvm.lifetime.end.p0(i64 4, ptr %15) #10
  call void @llvm.lifetime.end.p0(i64 4, ptr %14) #10
  %149 = load i32, ptr %7, align 4
  ret i32 %149
}