; Function Attrs: nounwind uwtable
define internal fastcc i32 @device_try_init(ptr noundef %0, i32 noundef %1, ptr noundef captures(none) %2, ptr noundef captures(none) %3, ptr noundef nonnull captures(none) initializes((0, 4)) %4, ptr noundef nonnull writeonly captures(none) %5) unnamed_addr #0 {
  %7 = getelementptr inbounds nuw i8, ptr %0, i64 176
  %8 = load i32, ptr %7, align 8, !tbaa !65
  %9 = tail call i32 @ff_fmt_ff2v4l(i32 noundef %1, i32 noundef %8) #11
  store i32 %9, ptr %4, align 4, !tbaa !26
  %.not = icmp eq i32 %9, 0
  br i1 %.not, label %.preheader, label %10

10:                                               ; preds = %6
  %11 = tail call fastcc i32 @device_init(ptr noundef nonnull %0, ptr noundef %2, ptr noundef %3, i32 noundef %9)
  %12 = icmp slt i32 %11, 0
  br i1 %12, label %13, label %14

13:                                               ; preds = %10
  store i32 0, ptr %4, align 4, !tbaa !26
  %.not52 = icmp eq i32 %11, -22
  br i1 %.not52, label %.preheader, label %.loopexit

14:                                               ; preds = %10
  %.pr = load i32, ptr %4, align 4, !tbaa !26
  %15 = icmp eq i32 %.pr, 0
  br i1 %15, label %.preheader, label %44

.preheader:                                       ; preds = %6, %13, %14
  %.04373 = phi i32 [ %11, %14 ], [ undef, %6 ], [ -22, %13 ]
  %16 = load i32, ptr getelementptr inbounds nuw (i8, ptr @ff_fmt_conversion_table, i64 4), align 4, !tbaa !141
  %.not5458 = icmp eq i32 %16, 0
  br i1 %.not5458, label %._crit_edge.thread, label %.lr.ph

.lr.ph:                                           ; preds = %.preheader, %33
  %indvars.iv = phi i64 [ %indvars.iv.next, %33 ], [ 0, %.preheader ]
  %17 = phi i32 [ %36, %33 ], [ %16, %.preheader ]
  %18 = phi ptr [ %34, %33 ], [ @ff_fmt_conversion_table, %.preheader ]
  %.259 = phi i32 [ %.4, %33 ], [ %.04373, %.preheader ]
  %19 = load i32, ptr %7, align 8, !tbaa !65
  %20 = icmp eq i32 %19, 0
  %21 = icmp eq i32 %17, %19
  %or.cond56 = or i1 %20, %21
  br i1 %or.cond56, label %22, label %33

22:                                               ; preds = %.lr.ph
  %23 = tail call ptr @avcodec_get_name(i32 noundef %17) #11
  %24 = load i32, ptr %18, align 4, !tbaa !143
  %25 = tail call ptr @av_get_pix_fmt_name(i32 noundef %24) #11
  %.not.i = icmp eq ptr %25, null
  %26 = select i1 %.not.i, ptr @.str.65, ptr %25
  tail call void (ptr, i32, ptr, ...) @av_log(ptr noundef nonnull %0, i32 noundef 48, ptr noundef nonnull @.str.64, ptr noundef %23, ptr noundef nonnull %26) #11
  %27 = getelementptr inbounds nuw i8, ptr %18, i64 8
  %28 = load i32, ptr %27, align 4, !tbaa !144
  store i32 %28, ptr %4, align 4, !tbaa !26
  %29 = tail call fastcc i32 @device_init(ptr noundef nonnull %0, ptr noundef %2, ptr noundef %3, i32 noundef %28)
  %30 = icmp sgt i32 %29, -1
  br i1 %30, label %.._crit_edge.loopexit_crit_edge, label %31

.._crit_edge.loopexit_crit_edge:                  ; preds = %22
  %.pre.pre = load i32, ptr %4, align 4, !tbaa !26
  br label %._crit_edge

31:                                               ; preds = %22
  %.not55 = icmp eq i32 %29, -22
  br i1 %.not55, label %32, label %.loopexit

32:                                               ; preds = %31
  store i32 0, ptr %4, align 4, !tbaa !26
  br label %33

33:                                               ; preds = %.lr.ph, %32
  %.4 = phi i32 [ -22, %32 ], [ %.259, %.lr.ph ]
  %indvars.iv.next = add nuw nsw i64 %indvars.iv, 1
  %34 = getelementptr inbounds nuw [0 x %struct.fmt_map], ptr @ff_fmt_conversion_table, i64 0, i64 %indvars.iv.next
  %35 = getelementptr inbounds nuw i8, ptr %34, i64 4
  %36 = load i32, ptr %35, align 4, !tbaa !141
  %.not54 = icmp eq i32 %36, 0
  br i1 %.not54, label %._crit_edge, label %.lr.ph, !llvm.loop !145

._crit_edge:                                      ; preds = %33, %.._crit_edge.loopexit_crit_edge
  %37 = phi i32 [ %.pre.pre, %.._crit_edge.loopexit_crit_edge ], [ 0, %33 ]
  %.3 = phi i32 [ %29, %.._crit_edge.loopexit_crit_edge ], [ %.4, %33 ]
  %38 = icmp eq i32 %37, 0
  br i1 %38, label %._crit_edge.thread, label %44

._crit_edge.thread:                               ; preds = %.preheader, %._crit_edge
  %39 = load i32, ptr %7, align 8, !tbaa !65
  %40 = tail call ptr @avcodec_get_name(i32 noundef %39) #11
  %41 = load i32, ptr %7, align 8, !tbaa !65
  %42 = tail call ptr @av_get_pix_fmt_name(i32 noundef %1) #11
  %.not.i57 = icmp eq ptr %42, null
  %43 = select i1 %.not.i57, ptr @.str.65, ptr %42
  tail call void (ptr, i32, ptr, ...) @av_log(ptr noundef %0, i32 noundef 16, ptr noundef nonnull @.str.66, ptr noundef %40, i32 noundef %41, ptr noundef nonnull %43, i32 noundef %1) #11
  %.pre64 = load i32, ptr %4, align 4, !tbaa !26
  br label %44

44:                                               ; preds = %._crit_edge, %._crit_edge.thread, %14
  %45 = phi i32 [ %.pr, %14 ], [ %.pre64, %._crit_edge.thread ], [ %37, %._crit_edge ]
  %.1 = phi i32 [ %11, %14 ], [ -22, %._crit_edge.thread ], [ %.3, %._crit_edge ]
  %46 = tail call i32 @ff_fmt_v4l2codec(i32 noundef %45) #11
  store i32 %46, ptr %5, align 4, !tbaa !26
  %47 = icmp ne i32 %46, 0
  %48 = icmp eq i32 %.1, -22
  %or.cond = select i1 %47, i1 true, i1 %48
  br i1 %or.cond, label %.loopexit, label %49

49:                                               ; preds = %44
  tail call void (ptr, i32, ptr, ...) @av_log(ptr noundef null, i32 noundef 0, ptr noundef nonnull @.str.67, ptr noundef nonnull @.str.68, ptr noundef nonnull @.str.69, i32 noundef 865) #11
  tail call void @abort() #13
  unreachable

.loopexit:                                        ; preds = %31, %44, %13
  %.044 = phi i32 [ %11, %13 ], [ %.1, %44 ], [ %29, %31 ]
  ret i32 %.044
}